(lp1
(lp2
I73
aI0
aI0
aI0
aa(lp3
I14
aI0
aI0
aI0
aa(lp4
I9
aI0
aI0
aI0
aa(lp5
I72
aI0
aI0
aI0
aa(lp6
I24
aI0
aI0
aI0
aa(lp7
I49
aI0
aI0
aI0
aa(lp8
I32
aI0
aI0
aI0
aa(lp9
I27
aI0
aI0
aI0
aa(lp10
I23
aI0
aI0
aI0
aa(lp11
I15
aI0
aI0
aI0
aa(lp12
I12
aI0
aI0
aI0
aa(lp13
I69
aI0
aI0
aI0
aa(lp14
I35
aI0
aI0
aI0
aa(lp15
I76
aI0
aI0
aI0
aa(lp16
I13
aI0
aI0
aI0
aa(lp17
I58
aI0
aI0
aI0
aa(lp18
I18
aI0
aI0
aI0
aa(lp19
I85
aI0
aI0
aI0
aa(lp20
I71
aI0
aI0
aI0
aa(lp21
I19
aI0
aI0
aI0
aa(lp22
I10
aI0
aI0
aI0
aa(lp23
I51
aI0
aI0
aI0
aa(lp24
I17
aI0
aI0
aI0
aa(lp25
I20
aI0
aI0
aI0
aa(lp26
I44
aI0
aI0
aI0
aa(lp27
I15
aI0
aI0
aI0
aa(lp28
I28
aI0
aI0
aI0
aa(lp29
I61
aI0
aI0
aI0
aa(lp30
I61
aI0
aI0
aI0
aa(lp31
I27
aI0
aI0
aI0
aa(lp32
I8
aI0
aI0
aI0
aa(lp33
I4
aI0
aI0
aI0
aa(lp34
I29
aI0
aI0
aI0
aa(lp35
I18
aI0
aI0
aI0
aa(lp36
I22
aI0
aI0
aI0
aa(lp37
I66
aI0
aI0
aI0
aa(lp38
I18
aI0
aI0
aI0
aa(lp39
I14
aI0
aI0
aI0
aa.