(dp0
I1
(I5
I1
tp1
sI2
(I5
I1
tp2
sI3
(I5
I1
tp3
sI4
(I5
I1
tp4
sI5
(I5
I1
tp5
sI6
(I5
I1
tp6
sI7
(I5
I1
tp7
sI8
(I5
I1
tp8
sI9
(I5
I1
tp9
sI10
(I5
I1
tp10
sI11
(I5
I1
tp11
sI12
(I5
I1
tp12
sI13
(I5
I1
tp13
sI14
(I5
I1
tp14
sI15
(I5
I1
tp15
sI16
(I5
I1
tp16
sI17
(I5
I1
tp17
sI18
(I5
I1
tp18
sI19
(I5
I1
tp19
sI20
(I5
I1
tp20
sI21
(I5
I1
tp21
sI22
(I5
I1
tp22
sI23
(I5
I1
tp23
sI24
(I5
I1
tp24
sI25
(I5
I1
tp25
sI26
(I5
I1
tp26
sI27
(I5
I1
tp27
sI28
(I5
I1
tp28
sI29
(I5
I1
tp29
sI30
(I5
I1
tp30
sI31
(I5
I1
tp31
sI32
(I5
I1
tp32
sI33
(I5
I1
tp33
sI34
(I5
I1
tp34
sI35
(I5
I1
tp35
sI36
(I5
I1
tp36
sI37
(I5
I1
tp37
sI38
(I5
I1
tp38
sI39
(I5
I1
tp39
sI40
(I5
I1
tp40
sI41
(I5
I1
tp41
sI42
(I5
I1
tp42
sI43
(I5
I1
tp43
sI44
(I5
I1
tp44
sI45
(I5
I1
tp45
sI46
(I5
I1
tp46
sI47
(I5
I1
tp47
sI48
(I5
I1
tp48
sI49
(I5
I1
tp49
sI50
(I5
I1
tp50
sI51
(I5
I1
tp51
sI52
(I5
I1
tp52
sI53
(I5
I1
tp53
sI54
(I5
I1
tp54
sI55
(I5
I1
tp55
sI56
(F4.987098579001125
I4
tp56
sI57
(I5
I1
tp57
sI58
(F4.942889755080649
I4
tp58
sI59
(I5
I1
tp59
sI60
(I5
I1
tp60
sI61
(I5
I1
tp61
sI62
(I5
I1
tp62
sI63
(I5
I1
tp63
sI64
(I5
I1
tp64
sI65
(I5
I1
tp65
sI66
(I5
I1
tp66
sI67
(I5
I1
tp67
sI68
(I5
I1
tp68
sI69
(I5
I1
tp69
sI70
(I5
I1
tp70
sI71
(I5
I1
tp71
sI72
(I5
I1
tp72
sI73
(I5
I1
tp73
sI74
(I5
I1
tp74
sI75
(I5
I1
tp75
sI76
(I5
I1
tp76
sI77
(I5
I1
tp77
sI78
(I5
I1
tp78
sI79
(I5
I1
tp79
sI80
(I5
I1
tp80
sI81
(I5
I1
tp81
sI82
(I5
I1
tp82
sI83
(I5
I1
tp83
sI84
(I5
I1
tp84
sI85
(I5
I1
tp85
sI86
(I5
I1
tp86
sI87
(I5
I1
tp87
sI88
(F5.0
I4
tp88
sI89
(I5
I1
tp89
sI90
(I5
I1
tp90
sI91
(I5
I1
tp91
sI92
(I5
I1
tp92
sI93
(I5
I1
tp93
sI94
(I5
I1
tp94
sI95
(I5
I1
tp95
sI96
(I5
I1
tp96
sI97
(I5
I1
tp97
sI98
(I5
I1
tp98
sI99
(I5
I1
tp99
sI100
(I5
I1
tp100
sI101
(I5
I1
tp101
sI102
(I5
I1
tp102
sI103
(I5
I1
tp103
sI104
(I5
I1
tp104
sI105
(I5
I1
tp105
sI106
(I5
I1
tp106
sI107
(I5
I1
tp107
sI108
(I5
I1
tp108
sI109
(I5
I1
tp109
sI110
(I5
I1
tp110
sI111
(I5
I1
tp111
sI112
(F5.000000000000002
I4
tp112
sI113
(I5
I1
tp113
sI114
(I5
I1
tp114
sI115
(I5
I1
tp115
sI116
(I5
I1
tp116
sI117
(I5
I1
tp117
sI118
(I5
I1
tp118
sI119
(I5
I1
tp119
sI120
(I5
I1
tp120
sI121
(I5
I1
tp121
sI122
(I5
I1
tp122
sI123
(I5
I1
tp123
sI124
(I5
I1
tp124
sI125
(I5
I1
tp125
sI126
(I5
I1
tp126
sI127
(I5
I1
tp127
sI128
(F4.999999999999998
I4
tp128
sI129
(I5
I1
tp129
sI130
(I5
I1
tp130
sI131
(I5
I1
tp131
sI132
(I5
I1
tp132
sI133
(I5
I1
tp133
sI134
(I5
I1
tp134
sI135
(I5
I1
tp135
sI136
(I5
I1
tp136
sI137
(I5
I1
tp137
sI138
(I5
I1
tp138
sI139
(I5
I1
tp139
sI140
(I5
I1
tp140
sI141
(I5
I1
tp141
sI142
(I5
I1
tp142
sI143
(I5
I1
tp143
sI144
(I5
I1
tp144
sI145
(I5
I1
tp145
sI146
(I5
I1
tp146
sI147
(I5
I1
tp147
sI148
(I5
I1
tp148
sI149
(I5
I1
tp149
sI150
(I5
I1
tp150
sI151
(I5
I1
tp151
sI152
(I5
I1
tp152
sI153
(I5
I1
tp153
sI154
(I5
I1
tp154
sI155
(I5
I1
tp155
sI156
(I5
I1
tp156
sI157
(I5
I1
tp157
sI158
(I5
I1
tp158
sI159
(I5
I1
tp159
sI160
(I5
I1
tp160
sI161
(I5
I1
tp161
sI162
(I5
I1
tp162
sI163
(I5
I1
tp163
sI164
(I5
I1
tp164
sI165
(I5
I1
tp165
sI166
(I5
I1
tp166
sI167
(F4.958528722388459
I2
tp167
sI168
(F4.8927576476469365
I4
tp168
sI169
(I5
I1
tp169
sI170
(F4.072589347191596
I2
tp170
sI171
(I5
I1
tp171
sI172
(I5
I1
tp172
sI173
(I5
I1
tp173
sI174
(I5
I1
tp174
sI175
(I5
I1
tp175
sI176
(I5
I1
tp176
sI177
(I5
I1
tp177
sI178
(I5
I1
tp178
sI179
(I5
I1
tp179
sI180
(I5
I1
tp180
sI181
(I5
I1
tp181
sI182
(I5
I1
tp182
sI183
(I5
I1
tp183
sI184
(I5
I1
tp184
sI185
(I5
I1
tp185
sI186
(I5
I1
tp186
sI187
(I5
I1
tp187
sI188
(I5
I1
tp188
sI189
(I5
I1
tp189
sI190
(I5
I1
tp190
sI191
(I5
I1
tp191
sI192
(I5
I1
tp192
sI193
(I5
I1
tp193
sI194
(I5
I1
tp194
sI195
(I5
I1
tp195
sI196
(I5
I1
tp196
sI197
(I5
I1
tp197
sI198
(I5
I1
tp198
sI199
(I5
I1
tp199
sI200
(I5
I1
tp200
sI201
(I5
I1
tp201
sI202
(I5
I1
tp202
sI203
(I5
I1
tp203
sI204
(I5
I1
tp204
sI205
(I5
I1
tp205
sI206
(I5
I1
tp206
sI207
(I5
I1
tp207
sI208
(I5
I1
tp208
sI209
(I5
I1
tp209
sI210
(I5
I1
tp210
sI211
(I5
I1
tp211
sI212
(I5
I1
tp212
sI213
(I5
I1
tp213
sI214
(I5
I1
tp214
sI215
(I5
I1
tp215
sI216
(I5
I1
tp216
sI217
(I5
I1
tp217
sI218
(I5
I1
tp218
sI219
(I5
I1
tp219
sI220
(I5
I1
tp220
sI221
(I5
I1
tp221
sI222
(I5
I1
tp222
sI223
(I5
I1
tp223
sI224
(I5
I1
tp224
sI225
(F4.916909673002468
I2
tp225
sI226
(F4.417238580421108
I4
tp226
sI227
(I5
I1
tp227
sI228
(I5
I1
tp228
sI229
(I5
I1
tp229
sI230
(I5
I1
tp230
sI231
(I5
I1
tp231
sI232
(I5
I1
tp232
sI233
(I5
I1
tp233
sI234
(I5
I1
tp234
sI235
(I5
I1
tp235
sI236
(I5
I1
tp236
sI237
(I5
I1
tp237
sI238
(I5
I1
tp238
sI239
(I5
I1
tp239
sI240
(I5
I1
tp240
sI241
(I5
I1
tp241
sI242
(I5
I1
tp242
sI243
(I5
I1
tp243
sI244
(I5
I1
tp244
sI245
(I5
I1
tp245
sI246
(I5
I1
tp246
sI247
(I5
I1
tp247
sI248
(I5
I1
tp248
sI249
(I5
I1
tp249
sI250
(I5
I1
tp250
sI251
(I5
I1
tp251
sI252
(I5
I1
tp252
sI253
(I5
I1
tp253
sI254
(I5
I1
tp254
sI255
(I5
I1
tp255
sI256
(I5
I1
tp256
sI257
(I5
I1
tp257
sI258
(I5
I1
tp258
sI259
(I5
I1
tp259
sI260
(I5
I1
tp260
sI261
(I5
I1
tp261
sI262
(I5
I1
tp262
sI263
(I5
I1
tp263
sI264
(I5
I1
tp264
sI265
(I5
I1
tp265
sI266
(I5
I1
tp266
sI267
(I5
I1
tp267
sI268
(I5
I1
tp268
sI269
(I5
I1
tp269
sI270
(I5
I1
tp270
sI271
(I5
I1
tp271
sI272
(I5
I1
tp272
sI273
(I5
I1
tp273
sI274
(I5
I1
tp274
sI275
(I5
I1
tp275
sI276
(I5
I1
tp276
sI277
(I5
I1
tp277
sI278
(I5
I1
tp278
sI279
(I5
I1
tp279
sI280
(I5
I1
tp280
sI281
(I5
I1
tp281
sI282
(I5
I1
tp282
sI283
(I5
I1
tp283
sI284
(I5
I1
tp284
sI285
(I5
I1
tp285
sI286
(I5
I1
tp286
sI287
(I5
I1
tp287
sI288
(I5
I1
tp288
sI289
(I5
I1
tp289
sI290
(I5
I1
tp290
sI291
(I5
I1
tp291
sI292
(I5
I1
tp292
sI293
(I5
I1
tp293
sI294
(I5
I1
tp294
sI295
(I5
I1
tp295
sI296
(I5
I1
tp296
sI297
(I5
I1
tp297
sI298
(I5
I1
tp298
sI299
(I5
I1
tp299
sI300
(I5
I1
tp300
sI301
(I5
I1
tp301
sI302
(I5
I1
tp302
sI303
(I5
I1
tp303
sI304
(I5
I1
tp304
sI305
(I5
I1
tp305
sI306
(I5
I1
tp306
sI307
(I5
I1
tp307
sI308
(I5
I1
tp308
sI309
(I5
I1
tp309
sI310
(I5
I1
tp310
sI311
(I5
I1
tp311
sI312
(I5
I1
tp312
sI313
(I5
I1
tp313
sI314
(I5
I1
tp314
sI315
(I5
I1
tp315
sI316
(I5
I1
tp316
sI317
(I5
I1
tp317
sI318
(I5
I1
tp318
sI319
(I5
I1
tp319
sI320
(I5
I1
tp320
sI321
(F4.715889516012676
I5
tp321
sI322
(I5
I1
tp322
sI323
(I5
I1
tp323
sI324
(I5
I1
tp324
sI325
(I5
I1
tp325
sI326
(I5
I1
tp326
sI327
(I5
I1
tp327
sI328
(I5
I1
tp328
sI329
(I5
I1
tp329
sI330
(I5
I1
tp330
sI331
(I5
I1
tp331
sI332
(I5
I1
tp332
sI333
(I5
I1
tp333
sI334
(I5
I1
tp334
sI335
(F4.695422291438936
I2
tp335
sI336
(I5
I1
tp336
sI337
(I5
I1
tp337
sI338
(I5
I1
tp338
sI339
(I5
I1
tp339
sI340
(F4.977906754319085
I4
tp340
sI341
(I5
I1
tp341
sI342
(F4.978604701374431
I5
tp342
sI343
(I5
I1
tp343
sI344
(I5
I1
tp344
sI345
(I5
I1
tp345
sI346
(F4.853544209103559
I2
tp346
sI347
(I5
I1
tp347
sI348
(I5
I1
tp348
sI349
(I5
I1
tp349
sI350
(F4.718780297145342
I3
tp350
sI351
(I5
I1
tp351
sI352
(I5
I1
tp352
sI353
(I5
I1
tp353
sI354
(I5
I1
tp354
sI355
(I5
I1
tp355
sI356
(I5
I1
tp356
sI357
(I5
I1
tp357
sI358
(I5
I1
tp358
sI359
(I5
I1
tp359
sI360
(I5
I1
tp360
sI361
(I5
I1
tp361
sI362
(I5
I1
tp362
sI363
(I5
I1
tp363
sI364
(I5
I1
tp364
sI365
(I5
I1
tp365
sI366
(I5
I1
tp366
sI367
(I5
I1
tp367
sI368
(I5
I1
tp368
sI369
(F1.6692785002049988
I4
tp369
sI370
(F4.576033333316451
I2
tp370
sI371
(I5
I1
tp371
sI372
(I5
I1
tp372
sI373
(I5
I1
tp373
sI374
(I5
I1
tp374
sI375
(I5
I1
tp375
sI376
(I5
I1
tp376
sI377
(I5
I1
tp377
sI378
(I5
I1
tp378
sI379
(I5
I1
tp379
sI380
(I5
I1
tp380
sI381
(I5
I1
tp381
sI382
(I5
I1
tp382
sI383
(I5
I1
tp383
sI384
(I5
I1
tp384
sI385
(I5
I1
tp385
sI386
(I5
I1
tp386
sI387
(I5
I1
tp387
sI388
(I5
I1
tp388
sI389
(I5
I1
tp389
sI390
(I5
I1
tp390
sI391
(I5
I1
tp391
sI392
(I5
I1
tp392
sI393
(I5
I1
tp393
sI394
(I5
I1
tp394
sI395
(I5
I1
tp395
sI396
(I5
I1
tp396
sI397
(I5
I1
tp397
sI398
(I5
I1
tp398
sI399
(I5
I1
tp399
sI400
(I5
I1
tp400
sI401
(I5
I1
tp401
sI402
(I5
I1
tp402
sI403
(I5
I1
tp403
sI404
(I5
I1
tp404
sI405
(I5
I1
tp405
sI406
(I5
I1
tp406
sI407
(I5
I1
tp407
sI408
(I5
I1
tp408
sI409
(I5
I1
tp409
sI410
(I5
I1
tp410
sI411
(I5
I1
tp411
sI412
(I5
I1
tp412
sI413
(I5
I1
tp413
sI414
(I5
I1
tp414
sI415
(I5
I1
tp415
sI416
(I5
I1
tp416
sI417
(I5
I1
tp417
sI418
(I5
I1
tp418
sI419
(I5
I1
tp419
sI420
(I5
I1
tp420
sI421
(I5
I1
tp421
sI422
(I5
I1
tp422
sI423
(I5
I1
tp423
sI424
(I5
I1
tp424
sI425
(I5
I1
tp425
sI426
(I5
I1
tp426
sI427
(I5
I1
tp427
sI428
(I5
I1
tp428
sI429
(I5
I1
tp429
sI430
(I5
I1
tp430
sI431
(I5
I1
tp431
sI432
(I5
I1
tp432
sI433
(I5
I1
tp433
sI434
(I5
I1
tp434
sI435
(I5
I1
tp435
sI436
(I5
I1
tp436
sI437
(I5
I1
tp437
sI438
(I5
I1
tp438
sI439
(I5
I1
tp439
sI440
(I5
I1
tp440
sI441
(I5
I1
tp441
sI442
(I5
I1
tp442
sI443
(I5
I1
tp443
sI444
(I5
I1
tp444
sI445
(I5
I1
tp445
sI446
(I5
I1
tp446
sI447
(I5
I1
tp447
sI448
(I5
I1
tp448
sI449
(I5
I1
tp449
sI450
(I5
I1
tp450
sI451
(I5
I1
tp451
sI452
(I5
I1
tp452
sI453
(I5
I1
tp453
sI454
(I5
I1
tp454
sI455
(I5
I1
tp455
sI456
(I5
I1
tp456
sI457
(I5
I1
tp457
sI458
(I5
I1
tp458
sI459
(I5
I1
tp459
sI460
(I5
I1
tp460
sI461
(I5
I1
tp461
sI462
(I5
I1
tp462
sI463
(I5
I1
tp463
sI464
(I5
I1
tp464
sI465
(I5
I1
tp465
sI466
(I5
I1
tp466
sI467
(I5
I1
tp467
sI468
(I5
I1
tp468
sI469
(I5
I1
tp469
sI470
(I5
I1
tp470
sI471
(I5
I1
tp471
sI472
(I5
I1
tp472
sI473
(I5
I1
tp473
sI474
(I5
I1
tp474
sI475
(I5
I1
tp475
sI476
(I5
I1
tp476
sI477
(I5
I1
tp477
sI478
(I5
I1
tp478
sI479
(I5
I1
tp479
sI480
(I5
I1
tp480
sI481
(I5
I1
tp481
sI482
(I5
I1
tp482
sI483
(I5
I1
tp483
sI484
(I5
I1
tp484
sI485
(I5
I1
tp485
sI486
(I5
I1
tp486
sI487
(I5
I1
tp487
sI488
(I5
I1
tp488
sI489
(I5
I1
tp489
sI490
(I5
I1
tp490
sI491
(I5
I1
tp491
sI492
(I5
I1
tp492
sI493
(I5
I1
tp493
sI494
(I5
I1
tp494
sI495
(I5
I1
tp495
sI496
(I5
I1
tp496
sI497
(I5
I1
tp497
sI498
(I5
I1
tp498
sI499
(I5
I1
tp499
sI500
(I5
I1
tp500
sI501
(I5
I1
tp501
sI502
(I5
I1
tp502
sI503
(I5
I1
tp503
sI504
(I5
I1
tp504
sI505
(I5
I1
tp505
sI506
(I5
I1
tp506
sI507
(I5
I1
tp507
sI508
(I5
I1
tp508
sI509
(I5
I1
tp509
sI510
(I5
I1
tp510
sI511
(I5
I1
tp511
sI512
(I5
I1
tp512
sI513
(I5
I1
tp513
sI514
(I5
I1
tp514
sI515
(I5
I1
tp515
sI516
(I5
I1
tp516
sI517
(I5
I1
tp517
sI518
(I5
I1
tp518
sI519
(I5
I1
tp519
sI520
(I5
I1
tp520
sI521
(I5
I1
tp521
sI522
(I5
I1
tp522
sI523
(I5
I1
tp523
sI524
(I5
I1
tp524
sI525
(I5
I1
tp525
sI526
(I5
I1
tp526
sI527
(I5
I1
tp527
sI528
(I5
I1
tp528
sI529
(I5
I1
tp529
sI530
(I5
I1
tp530
sI531
(I5
I1
tp531
sI532
(I5
I1
tp532
sI533
(I5
I1
tp533
sI534
(I5
I1
tp534
sI535
(I5
I1
tp535
sI536
(I5
I1
tp536
sI537
(I5
I1
tp537
sI538
(I5
I1
tp538
sI539
(I5
I1
tp539
sI540
(I5
I1
tp540
sI541
(I5
I1
tp541
sI542
(I5
I1
tp542
sI543
(I5
I1
tp543
sI544
(I5
I1
tp544
sI545
(I5
I1
tp545
sI546
(I5
I1
tp546
sI547
(I5
I1
tp547
sI548
(I5
I1
tp548
sI549
(I5
I1
tp549
sI550
(I5
I1
tp550
sI551
(I5
I1
tp551
sI552
(I5
I1
tp552
sI553
(I5
I1
tp553
sI554
(I5
I1
tp554
sI555
(I5
I1
tp555
sI556
(I5
I1
tp556
sI557
(I5
I1
tp557
sI558
(I5
I1
tp558
sI559
(I5
I1
tp559
sI560
(I5
I1
tp560
sI561
(I5
I1
tp561
sI562
(I5
I1
tp562
sI563
(I5
I1
tp563
sI564
(I5
I1
tp564
sI565
(I5
I1
tp565
sI566
(I5
I1
tp566
sI567
(I5
I1
tp567
sI568
(I5
I1
tp568
sI569
(I5
I1
tp569
sI570
(I5
I1
tp570
sI571
(I5
I1
tp571
sI572
(I5
I1
tp572
sI573
(I5
I1
tp573
sI574
(I5
I1
tp574
sI575
(I5
I1
tp575
sI576
(I5
I1
tp576
sI577
(I5
I1
tp577
sI578
(I5
I1
tp578
sI579
(I5
I1
tp579
sI580
(I5
I1
tp580
sI581
(I5
I1
tp581
sI582
(I5
I1
tp582
sI583
(I5
I1
tp583
sI584
(I5
I1
tp584
sI585
(I5
I1
tp585
sI586
(I5
I1
tp586
sI587
(I5
I1
tp587
sI588
(I5
I1
tp588
sI589
(I5
I1
tp589
sI590
(I5
I1
tp590
sI591
(I5
I1
tp591
sI592
(I5
I1
tp592
sI593
(I5
I1
tp593
sI594
(I5
I1
tp594
sI595
(I5
I1
tp595
sI596
(I5
I1
tp596
sI597
(I5
I1
tp597
sI598
(I5
I1
tp598
sI599
(I5
I1
tp599
sI600
(I5
I1
tp600
sI601
(I5
I1
tp601
sI602
(I5
I1
tp602
sI603
(I5
I1
tp603
s.